(lp0
(S'cppflags'
p1
ccopy_reg
_reconstructor
p2
(cino.utils
SpaceList
p3
c__builtin__
list
p4
(lp5
S'-mmcu=atmega328p'
p6
aS'-DF_CPU=16000000L'
p7
aS'-DARDUINO=106'
p8
aS'-I/usr/share/arduino/hardware/arduino/cores/arduino'
p9
aS'-ffunction-sections'
p10
aS'-fdata-sections'
p11
aS'-g'
p12
aS'-Os'
p13
aS'-w'
p14
aS'-I/usr/share/arduino/hardware/arduino/variants/standard'
p15
aS'-I/usr/share/arduino/libraries/Wire'
p16
aS'-I/usr/share/arduino/libraries/Wire/utility'
p17
aS'-I/usr/share/arduino/hardware/arduino/cores/arduino'
p18
aS'-I/usr/share/arduino/hardware/arduino/cores/arduino/avr-libc'
p19
atp20
Rp21
tp22
a(S'version.txt'
p23
S'/usr/share/arduino/lib/version.txt'
p24
tp25
a(S'used_libs'
p26
(lp27
S'/usr/share/arduino/libraries/Wire'
p28
aS'/usr/share/arduino/hardware/arduino/cores/arduino'
p29
atp30
a(S'cc'
p31
S'/usr/share/arduino/hardware/tools/avr/bin/avr-gcc'
p32
tp33
a(S'make'
p34
S'/usr/bin/make'
p35
tp36
a(S'build_dir'
p37
S'.build/uno'
p38
tp39
a(S'arduino_core_dir'
p40
g29
tp41
a(S'boards.txt'
p42
S'/usr/share/arduino/hardware/arduino/boards.txt'
p43
tp44
a(S'cxxflags'
p45
g2
(g3
g4
(lp46
S'-fno-exceptions'
p47
atp48
Rp49
tp50
a(S'arduino_variants_dir'
p51
S'/usr/share/arduino/hardware/arduino/variants'
p52
tp53
a(S'deps'
p54
g2
(g3
g4
(lp55
S'.build/uno/src/dependencies.d'
p56
aS'.build/uno/arduino/dependencies.d'
p57
aS'.build/uno/Wire/dependencies.d'
p58
atp59
Rp60
tp61
a(S'ar'
p62
S'/usr/share/arduino/hardware/tools/avr/bin/avr-ar'
p63
tp64
a(S'names'
p65
(dp66
S'cpp'
p67
S'%s.cpp'
p68
sS'obj'
p69
S'%s.o'
p70
sg54
S'%s.d'
p71
sS'lib'
p72
S'lib%s.a'
p73
stp74
a(S'cflags'
p75
g2
(g3
g4
(lp76
tp77
Rp78
tp79
a(S'ldflags'
p80
g2
(g3
g4
(lp81
g6
aS'-Wl,-Os'
p82
aS'-Wl,--gc-sections'
p83
atp84
Rp85
tp86
a(S'arduino_libraries_dir'
p87
S'/usr/share/arduino/libraries'
p88
tp89
a(S'arduino_lib_version'
p90
g2
(cino.environment
Version
p91
c__builtin__
tuple
p92
(I1
I0
I6
tp93
tp94
Rp95
tp96
a(S'objcopy'
p97
S'/usr/share/arduino/hardware/tools/avr/bin/avr-objcopy'
p98
tp99
a(S'board_models'
p100
cino.environment
BoardModels
p101
((lp102
(lp103
S'uno'
p104
a(dp105
S'build'
p106
(dp107
S'core'
p108
S'arduino'
p109
sS'mcu'
p110
S'atmega328p'
p111
sS'f_cpu'
p112
S'16000000L'
p113
sS'variant'
p114
S'standard'
p115
ssS'bootloader'
p116
(dp117
S'extended_fuses'
p118
S'0x05'
p119
sS'high_fuses'
p120
S'0xde'
p121
sS'low_fuses'
p122
S'0xff'
p123
sS'lock_bits'
p124
S'0x0F'
p125
sS'file'
p126
S'optiboot_atmega328.hex'
p127
sS'path'
p128
S'optiboot'
p129
sS'unlock_bits'
p130
S'0x3F'
p131
ssS'name'
p132
S'Arduino Uno'
p133
sS'upload'
p134
(dp135
S'speed'
p136
S'115200'
p137
sS'maximum_size'
p138
S'32256'
p139
sS'protocol'
p140
S'arduino'
p141
ssaa(lp142
S'atmega328'
p143
a(dp144
S'build'
p145
(dp146
S'core'
p147
S'arduino'
p148
sS'mcu'
p149
S'atmega328p'
p150
sS'f_cpu'
p151
S'16000000L'
p152
sS'variant'
p153
S'standard'
p154
ssS'bootloader'
p155
(dp156
S'extended_fuses'
p157
S'0x05'
p158
sS'high_fuses'
p159
S'0xDA'
p160
sS'low_fuses'
p161
S'0xFF'
p162
sS'lock_bits'
p163
S'0x0F'
p164
sS'file'
p165
S'ATmegaBOOT_168_atmega328.hex'
p166
sS'path'
p167
S'atmega'
p168
sS'unlock_bits'
p169
S'0x3F'
p170
ssS'name'
p171
S'Arduino Duemilanove w/ ATmega328'
p172
sS'upload'
p173
(dp174
S'speed'
p175
S'57600'
p176
sS'maximum_size'
p177
S'30720'
p178
sS'protocol'
p179
S'arduino'
p180
ssaa(lp181
S'diecimila'
p182
a(dp183
S'build'
p184
(dp185
S'core'
p186
S'arduino'
p187
sS'mcu'
p188
S'atmega168'
p189
sS'f_cpu'
p190
S'16000000L'
p191
sS'variant'
p192
S'standard'
p193
ssS'bootloader'
p194
(dp195
S'extended_fuses'
p196
S'0x00'
p197
sS'high_fuses'
p198
S'0xdd'
p199
sS'low_fuses'
p200
S'0xff'
p201
sS'lock_bits'
p202
S'0x0F'
p203
sS'file'
p204
S'ATmegaBOOT_168_diecimila.hex'
p205
sS'path'
p206
S'atmega'
p207
sS'unlock_bits'
p208
S'0x3F'
p209
ssS'name'
p210
S'Arduino Diecimila or Duemilanove w/ ATmega168'
p211
sS'upload'
p212
(dp213
S'speed'
p214
S'19200'
p215
sS'maximum_size'
p216
S'14336'
p217
sS'protocol'
p218
S'arduino'
p219
ssaa(lp220
S'nano328'
p221
a(dp222
S'build'
p223
(dp224
S'core'
p225
S'arduino'
p226
sS'mcu'
p227
S'atmega328p'
p228
sS'f_cpu'
p229
S'16000000L'
p230
sS'variant'
p231
S'eightanaloginputs'
p232
ssS'bootloader'
p233
(dp234
S'extended_fuses'
p235
S'0x05'
p236
sS'high_fuses'
p237
S'0xDA'
p238
sS'low_fuses'
p239
S'0xFF'
p240
sS'lock_bits'
p241
S'0x0F'
p242
sS'file'
p243
S'ATmegaBOOT_168_atmega328.hex'
p244
sS'path'
p245
S'atmega'
p246
sS'unlock_bits'
p247
S'0x3F'
p248
ssS'name'
p249
S'Arduino Nano w/ ATmega328'
p250
sS'upload'
p251
(dp252
S'speed'
p253
S'57600'
p254
sS'maximum_size'
p255
S'30720'
p256
sS'protocol'
p257
S'arduino'
p258
ssaa(lp259
S'nano'
p260
a(dp261
S'build'
p262
(dp263
S'core'
p264
S'arduino'
p265
sS'mcu'
p266
S'atmega168'
p267
sS'f_cpu'
p268
S'16000000L'
p269
sS'variant'
p270
S'eightanaloginputs'
p271
ssS'bootloader'
p272
(dp273
S'extended_fuses'
p274
S'0x00'
p275
sS'high_fuses'
p276
S'0xdd'
p277
sS'low_fuses'
p278
S'0xff'
p279
sS'lock_bits'
p280
S'0x0F'
p281
sS'file'
p282
S'ATmegaBOOT_168_diecimila.hex'
p283
sS'path'
p284
S'atmega'
p285
sS'unlock_bits'
p286
S'0x3F'
p287
ssS'name'
p288
S'Arduino Nano w/ ATmega168'
p289
sS'upload'
p290
(dp291
S'speed'
p292
S'19200'
p293
sS'maximum_size'
p294
S'14336'
p295
sS'protocol'
p296
S'arduino'
p297
ssaa(lp298
S'mega2560'
p299
a(dp300
S'build'
p301
(dp302
S'core'
p303
S'arduino'
p304
sS'mcu'
p305
S'atmega2560'
p306
sS'f_cpu'
p307
S'16000000L'
p308
sS'variant'
p309
S'mega'
p310
ssS'bootloader'
p311
(dp312
S'extended_fuses'
p313
S'0xFD'
p314
sS'high_fuses'
p315
S'0xD8'
p316
sS'low_fuses'
p317
S'0xFF'
p318
sS'lock_bits'
p319
S'0x0F'
p320
sS'file'
p321
S'stk500boot_v2_mega2560.hex'
p322
sS'path'
p323
S'stk500v2'
p324
sS'unlock_bits'
p325
S'0x3F'
p326
ssS'name'
p327
S'Arduino Mega 2560 or Mega ADK'
p328
sS'upload'
p329
(dp330
S'speed'
p331
S'115200'
p332
sS'maximum_size'
p333
S'258048'
p334
sS'protocol'
p335
S'wiring'
p336
ssaa(lp337
S'mega'
p338
a(dp339
S'build'
p340
(dp341
S'core'
p342
S'arduino'
p343
sS'mcu'
p344
S'atmega1280'
p345
sS'f_cpu'
p346
S'16000000L'
p347
sS'variant'
p348
S'mega'
p349
ssS'bootloader'
p350
(dp351
S'extended_fuses'
p352
S'0xF5'
p353
sS'high_fuses'
p354
S'0xDA'
p355
sS'low_fuses'
p356
S'0xFF'
p357
sS'lock_bits'
p358
S'0x0F'
p359
sS'file'
p360
S'ATmegaBOOT_168_atmega1280.hex'
p361
sS'path'
p362
S'atmega'
p363
sS'unlock_bits'
p364
S'0x3F'
p365
ssS'name'
p366
S'Arduino Mega (ATmega1280)'
p367
sS'upload'
p368
(dp369
S'speed'
p370
S'57600'
p371
sS'maximum_size'
p372
S'126976'
p373
sS'protocol'
p374
S'arduino'
p375
ssaa(lp376
S'leonardo'
p377
a(dp378
S'build'
p379
(dp380
S'core'
p381
S'arduino'
p382
sS'f_cpu'
p383
S'16000000L'
p384
sS'vid'
p385
S'0x2341'
p386
sS'pid'
p387
S'0x8036'
p388
sS'variant'
p389
S'leonardo'
p390
sS'mcu'
p391
S'atmega32u4'
p392
ssS'bootloader'
p393
(dp394
S'extended_fuses'
p395
S'0xcb'
p396
sS'high_fuses'
p397
S'0xd8'
p398
sS'low_fuses'
p399
S'0xff'
p400
sS'lock_bits'
p401
S'0x2F'
p402
sS'file'
p403
S'Caterina-Leonardo.hex'
p404
sS'path'
p405
S'caterina'
p406
sS'unlock_bits'
p407
S'0x3F'
p408
ssS'name'
p409
S'Arduino Leonardo'
p410
sS'upload'
p411
(dp412
S'speed'
p413
S'57600'
p414
sS'maximum_size'
p415
S'28672'
p416
sS'protocol'
p417
S'avr109'
p418
sS'disable_flushing'
p419
S'true'
p420
ssaa(lp421
S'esplora'
p422
a(dp423
S'build'
p424
(dp425
S'core'
p426
S'arduino'
p427
sS'f_cpu'
p428
S'16000000L'
p429
sS'vid'
p430
S'0x2341'
p431
sS'pid'
p432
S'0x803C'
p433
sS'variant'
p434
S'leonardo'
p435
sS'mcu'
p436
S'atmega32u4'
p437
ssS'bootloader'
p438
(dp439
S'extended_fuses'
p440
S'0xcb'
p441
sS'high_fuses'
p442
S'0xd8'
p443
sS'low_fuses'
p444
S'0xff'
p445
sS'lock_bits'
p446
S'0x2F'
p447
sS'file'
p448
S'Caterina-Esplora.hex'
p449
sS'path'
p450
S'caterina'
p451
sS'unlock_bits'
p452
S'0x3F'
p453
ssS'name'
p454
S'Arduino Esplora'
p455
sS'upload'
p456
(dp457
S'speed'
p458
S'57600'
p459
sS'maximum_size'
p460
S'28672'
p461
sS'protocol'
p462
S'avr109'
p463
sS'disable_flushing'
p464
S'true'
p465
ssaa(lp466
S'micro'
p467
a(dp468
S'build'
p469
(dp470
S'core'
p471
S'arduino'
p472
sS'f_cpu'
p473
S'16000000L'
p474
sS'vid'
p475
S'0x2341'
p476
sS'pid'
p477
S'0x8037'
p478
sS'variant'
p479
S'micro'
p480
sS'mcu'
p481
S'atmega32u4'
p482
ssS'bootloader'
p483
(dp484
S'extended_fuses'
p485
S'0xcb'
p486
sS'high_fuses'
p487
S'0xd8'
p488
sS'low_fuses'
p489
S'0xff'
p490
sS'lock_bits'
p491
S'0x2F'
p492
sS'file'
p493
S'Caterina-Micro.hex'
p494
sS'path'
p495
S'caterina'
p496
sS'unlock_bits'
p497
S'0x3F'
p498
ssS'name'
p499
S'Arduino Micro'
p500
sS'upload'
p501
(dp502
S'speed'
p503
S'57600'
p504
sS'maximum_size'
p505
S'28672'
p506
sS'protocol'
p507
S'avr109'
p508
sS'disable_flushing'
p509
S'true'
p510
ssaa(lp511
S'mini328'
p512
a(dp513
S'build'
p514
(dp515
S'core'
p516
S'arduino'
p517
sS'mcu'
p518
S'atmega328p'
p519
sS'f_cpu'
p520
S'16000000L'
p521
sS'variant'
p522
S'eightanaloginputs'
p523
ssS'bootloader'
p524
(dp525
S'extended_fuses'
p526
S'0x05'
p527
sS'high_fuses'
p528
S'0xd8'
p529
sS'low_fuses'
p530
S'0xff'
p531
sS'lock_bits'
p532
S'0x0F'
p533
sS'file'
p534
S'optiboot_atmega328-Mini.hex'
p535
sS'path'
p536
S'optiboot'
p537
sS'unlock_bits'
p538
S'0x3F'
p539
ssS'name'
p540
S'Arduino Mini w/ ATmega328'
p541
sS'upload'
p542
(dp543
S'speed'
p544
S'115200'
p545
sS'maximum_size'
p546
S'28672'
p547
sS'protocol'
p548
S'arduino'
p549
ssaa(lp550
S'mini'
p551
a(dp552
S'build'
p553
(dp554
S'core'
p555
S'arduino'
p556
sS'mcu'
p557
S'atmega168'
p558
sS'f_cpu'
p559
S'16000000L'
p560
sS'variant'
p561
S'eightanaloginputs'
p562
ssS'bootloader'
p563
(dp564
S'extended_fuses'
p565
S'0x00'
p566
sS'high_fuses'
p567
S'0xdd'
p568
sS'low_fuses'
p569
S'0xff'
p570
sS'lock_bits'
p571
S'0x0F'
p572
sS'file'
p573
S'ATmegaBOOT_168_ng.hex'
p574
sS'path'
p575
S'atmega'
p576
sS'unlock_bits'
p577
S'0x3F'
p578
ssS'name'
p579
S'Arduino Mini w/ ATmega168'
p580
sS'upload'
p581
(dp582
S'speed'
p583
S'19200'
p584
sS'maximum_size'
p585
S'14336'
p586
sS'protocol'
p587
S'arduino'
p588
ssaa(lp589
S'ethernet'
p590
a(dp591
S'build'
p592
(dp593
S'f_cpu'
p594
S'16000000L'
p595
sS'mcu'
p596
S'atmega328p'
p597
sS'variant'
p598
S'ethernet'
p599
sS'core'
p600
S'arduino'
p601
ssS'bootloader'
p602
(dp603
S'extended_fuses'
p604
S'0x05'
p605
sS'high_fuses'
p606
S'0xde'
p607
sS'low_fuses'
p608
S'0xff'
p609
sS'lock_bits'
p610
S'0x0F'
p611
sS'file'
p612
S'optiboot_atmega328.hex'
p613
sS'path'
p614
S'optiboot'
p615
sS'unlock_bits'
p616
S'0x3F'
p617
ssS'name'
p618
S'Arduino Ethernet'
p619
sS'upload'
p620
(dp621
S'speed'
p622
S'115200'
p623
sS'maximum_size'
p624
S'32256'
p625
sS'protocol'
p626
S'arduino'
p627
ssaa(lp628
S'fio'
p629
a(dp630
S'build'
p631
(dp632
S'core'
p633
S'arduino'
p634
sS'mcu'
p635
S'atmega328p'
p636
sS'f_cpu'
p637
S'8000000L'
p638
sS'variant'
p639
S'eightanaloginputs'
p640
ssS'bootloader'
p641
(dp642
S'extended_fuses'
p643
S'0x05'
p644
sS'high_fuses'
p645
S'0xDA'
p646
sS'low_fuses'
p647
S'0xFF'
p648
sS'lock_bits'
p649
S'0x0F'
p650
sS'file'
p651
S'ATmegaBOOT_168_atmega328_pro_8MHz.hex'
p652
sS'path'
p653
S'arduino:atmega'
p654
sS'unlock_bits'
p655
S'0x3F'
p656
ssS'name'
p657
S'Arduino Fio'
p658
sS'upload'
p659
(dp660
S'speed'
p661
S'57600'
p662
sS'maximum_size'
p663
S'30720'
p664
sS'protocol'
p665
S'arduino'
p666
ssaa(lp667
S'bt328'
p668
a(dp669
S'build'
p670
(dp671
S'core'
p672
S'arduino'
p673
sS'mcu'
p674
S'atmega328p'
p675
sS'f_cpu'
p676
S'16000000L'
p677
sS'variant'
p678
S'eightanaloginputs'
p679
ssS'bootloader'
p680
(dp681
S'extended_fuses'
p682
S'0x05'
p683
sS'high_fuses'
p684
S'0xd8'
p685
sS'low_fuses'
p686
S'0xff'
p687
sS'lock_bits'
p688
S'0x0F'
p689
sS'file'
p690
S'ATmegaBOOT_168_atmega328_bt.hex'
p691
sS'path'
p692
S'bt'
p693
sS'unlock_bits'
p694
S'0x3F'
p695
ssS'name'
p696
S'Arduino BT w/ ATmega328'
p697
sS'upload'
p698
(dp699
S'speed'
p700
S'19200'
p701
sS'maximum_size'
p702
S'28672'
p703
sS'protocol'
p704
S'arduino'
p705
sS'disable_flushing'
p706
S'true'
p707
ssaa(lp708
S'bt'
p709
a(dp710
S'build'
p711
(dp712
S'core'
p713
S'arduino'
p714
sS'mcu'
p715
S'atmega168'
p716
sS'f_cpu'
p717
S'16000000L'
p718
sS'variant'
p719
S'eightanaloginputs'
p720
ssS'bootloader'
p721
(dp722
S'extended_fuses'
p723
S'0x00'
p724
sS'high_fuses'
p725
S'0xdd'
p726
sS'low_fuses'
p727
S'0xff'
p728
sS'lock_bits'
p729
S'0x0F'
p730
sS'file'
p731
S'ATmegaBOOT_168.hex'
p732
sS'path'
p733
S'bt'
p734
sS'unlock_bits'
p735
S'0x3F'
p736
ssS'name'
p737
S'Arduino BT w/ ATmega168'
p738
sS'upload'
p739
(dp740
S'speed'
p741
S'19200'
p742
sS'maximum_size'
p743
S'14336'
p744
sS'protocol'
p745
S'arduino'
p746
sS'disable_flushing'
p747
S'true'
p748
ssaa(lp749
S'LilyPadUSB'
p750
a(dp751
S'build'
p752
(dp753
S'core'
p754
S'arduino'
p755
sS'f_cpu'
p756
S'8000000L'
p757
sS'vid'
p758
S'0x1B4F'
p759
sS'pid'
p760
S'0x9208'
p761
sS'variant'
p762
S'leonardo'
p763
sS'mcu'
p764
S'atmega32u4'
p765
ssS'bootloader'
p766
(dp767
S'extended_fuses'
p768
S'0xce'
p769
sS'high_fuses'
p770
S'0xd8'
p771
sS'low_fuses'
p772
S'0xff'
p773
sS'lock_bits'
p774
S'0x2F'
p775
sS'file'
p776
S'Caterina-LilyPadUSB.hex'
p777
sS'path'
p778
S'caterina-LilyPadUSB'
p779
sS'unlock_bits'
p780
S'0x3F'
p781
ssS'name'
p782
S'LilyPad Arduino USB'
p783
sS'upload'
p784
(dp785
S'speed'
p786
S'57600'
p787
sS'maximum_size'
p788
S'28672'
p789
sS'protocol'
p790
S'avr109'
p791
sS'disable_flushing'
p792
S'true'
p793
ssaa(lp794
S'lilypad328'
p795
a(dp796
S'build'
p797
(dp798
S'core'
p799
S'arduino'
p800
sS'mcu'
p801
S'atmega328p'
p802
sS'f_cpu'
p803
S'8000000L'
p804
sS'variant'
p805
S'standard'
p806
ssS'bootloader'
p807
(dp808
S'extended_fuses'
p809
S'0x05'
p810
sS'high_fuses'
p811
S'0xDA'
p812
sS'low_fuses'
p813
S'0xFF'
p814
sS'lock_bits'
p815
S'0x0F'
p816
sS'file'
p817
S'ATmegaBOOT_168_atmega328_pro_8MHz.hex'
p818
sS'path'
p819
S'atmega'
p820
sS'unlock_bits'
p821
S'0x3F'
p822
ssS'name'
p823
S'LilyPad Arduino w/ ATmega328'
p824
sS'upload'
p825
(dp826
S'speed'
p827
S'57600'
p828
sS'maximum_size'
p829
S'30720'
p830
sS'protocol'
p831
S'arduino'
p832
ssaa(lp833
S'lilypad'
p834
a(dp835
S'build'
p836
(dp837
S'core'
p838
S'arduino'
p839
sS'mcu'
p840
S'atmega168'
p841
sS'f_cpu'
p842
S'8000000L'
p843
sS'variant'
p844
S'standard'
p845
ssS'bootloader'
p846
(dp847
S'extended_fuses'
p848
S'0x00'
p849
sS'high_fuses'
p850
S'0xdd'
p851
sS'low_fuses'
p852
S'0xe2'
p853
sS'lock_bits'
p854
S'0x0F'
p855
sS'file'
p856
S'LilyPadBOOT_168.hex'
p857
sS'path'
p858
S'lilypad'
p859
sS'unlock_bits'
p860
S'0x3F'
p861
ssS'name'
p862
S'LilyPad Arduino w/ ATmega168'
p863
sS'upload'
p864
(dp865
S'speed'
p866
S'19200'
p867
sS'maximum_size'
p868
S'14336'
p869
sS'protocol'
p870
S'arduino'
p871
ssaa(lp872
S'pro5v328'
p873
a(dp874
S'build'
p875
(dp876
S'core'
p877
S'arduino'
p878
sS'mcu'
p879
S'atmega328p'
p880
sS'f_cpu'
p881
S'16000000L'
p882
sS'variant'
p883
S'standard'
p884
ssS'bootloader'
p885
(dp886
S'extended_fuses'
p887
S'0x05'
p888
sS'high_fuses'
p889
S'0xDA'
p890
sS'low_fuses'
p891
S'0xFF'
p892
sS'lock_bits'
p893
S'0x0F'
p894
sS'file'
p895
S'ATmegaBOOT_168_atmega328.hex'
p896
sS'path'
p897
S'atmega'
p898
sS'unlock_bits'
p899
S'0x3F'
p900
ssS'name'
p901
S'Arduino Pro or Pro Mini (5V, 16 MHz) w/ ATmega328'
p902
sS'upload'
p903
(dp904
S'speed'
p905
S'57600'
p906
sS'maximum_size'
p907
S'30720'
p908
sS'protocol'
p909
S'arduino'
p910
ssaa(lp911
S'pro5v'
p912
a(dp913
S'build'
p914
(dp915
S'core'
p916
S'arduino'
p917
sS'mcu'
p918
S'atmega168'
p919
sS'f_cpu'
p920
S'16000000L'
p921
sS'variant'
p922
S'standard'
p923
ssS'bootloader'
p924
(dp925
S'extended_fuses'
p926
S'0x00'
p927
sS'high_fuses'
p928
S'0xdd'
p929
sS'low_fuses'
p930
S'0xff'
p931
sS'lock_bits'
p932
S'0x0F'
p933
sS'file'
p934
S'ATmegaBOOT_168_diecimila.hex'
p935
sS'path'
p936
S'atmega'
p937
sS'unlock_bits'
p938
S'0x3F'
p939
ssS'name'
p940
S'Arduino Pro or Pro Mini (5V, 16 MHz) w/ ATmega168'
p941
sS'upload'
p942
(dp943
S'speed'
p944
S'19200'
p945
sS'maximum_size'
p946
S'14336'
p947
sS'protocol'
p948
S'arduino'
p949
ssaa(lp950
S'pro328'
p951
a(dp952
S'build'
p953
(dp954
S'core'
p955
S'arduino'
p956
sS'mcu'
p957
S'atmega328p'
p958
sS'f_cpu'
p959
S'8000000L'
p960
sS'variant'
p961
S'standard'
p962
ssS'bootloader'
p963
(dp964
S'extended_fuses'
p965
S'0x05'
p966
sS'high_fuses'
p967
S'0xDA'
p968
sS'low_fuses'
p969
S'0xFF'
p970
sS'lock_bits'
p971
S'0x0F'
p972
sS'file'
p973
S'ATmegaBOOT_168_atmega328_pro_8MHz.hex'
p974
sS'path'
p975
S'atmega'
p976
sS'unlock_bits'
p977
S'0x3F'
p978
ssS'name'
p979
S'Arduino Pro or Pro Mini (3.3V, 8 MHz) w/ ATmega328'
p980
sS'upload'
p981
(dp982
S'speed'
p983
S'57600'
p984
sS'maximum_size'
p985
S'30720'
p986
sS'protocol'
p987
S'arduino'
p988
ssaa(lp989
S'pro'
p990
a(dp991
S'build'
p992
(dp993
S'core'
p994
S'arduino'
p995
sS'mcu'
p996
S'atmega168'
p997
sS'f_cpu'
p998
S'8000000L'
p999
sS'variant'
p1000
S'standard'
p1001
ssS'bootloader'
p1002
(dp1003
S'extended_fuses'
p1004
S'0x00'
p1005
sS'high_fuses'
p1006
S'0xdd'
p1007
sS'low_fuses'
p1008
S'0xc6'
p1009
sS'lock_bits'
p1010
S'0x0F'
p1011
sS'file'
p1012
S'ATmegaBOOT_168_pro_8MHz.hex'
p1013
sS'path'
p1014
S'atmega'
p1015
sS'unlock_bits'
p1016
S'0x3F'
p1017
ssS'name'
p1018
S'Arduino Pro or Pro Mini (3.3V, 8 MHz) w/ ATmega168'
p1019
sS'upload'
p1020
(dp1021
S'speed'
p1022
S'19200'
p1023
sS'maximum_size'
p1024
S'14336'
p1025
sS'protocol'
p1026
S'arduino'
p1027
ssaa(lp1028
S'atmega168'
p1029
a(dp1030
S'build'
p1031
(dp1032
S'core'
p1033
S'arduino'
p1034
sS'mcu'
p1035
S'atmega168'
p1036
sS'f_cpu'
p1037
S'16000000L'
p1038
sS'variant'
p1039
S'standard'
p1040
ssS'bootloader'
p1041
(dp1042
S'extended_fuses'
p1043
S'0x00'
p1044
sS'high_fuses'
p1045
S'0xdd'
p1046
sS'low_fuses'
p1047
S'0xff'
p1048
sS'lock_bits'
p1049
S'0x0F'
p1050
sS'file'
p1051
S'ATmegaBOOT_168_ng.hex'
p1052
sS'path'
p1053
S'atmega'
p1054
sS'unlock_bits'
p1055
S'0x3F'
p1056
ssS'name'
p1057
S'Arduino NG or older w/ ATmega168'
p1058
sS'upload'
p1059
(dp1060
S'speed'
p1061
S'19200'
p1062
sS'maximum_size'
p1063
S'14336'
p1064
sS'protocol'
p1065
S'arduino'
p1066
ssaa(lp1067
S'atmega8'
p1068
a(dp1069
S'build'
p1070
(dp1071
S'core'
p1072
S'arduino'
p1073
sS'mcu'
p1074
S'atmega8'
p1075
sS'f_cpu'
p1076
S'16000000L'
p1077
sS'variant'
p1078
S'standard'
p1079
ssS'bootloader'
p1080
(dp1081
S'high_fuses'
p1082
S'0xca'
p1083
sS'low_fuses'
p1084
S'0xdf'
p1085
sS'lock_bits'
p1086
S'0x0F'
p1087
sS'file'
p1088
S'ATmegaBOOT-prod-firmware-2009-11-07.hex'
p1089
sS'path'
p1090
S'atmega8'
p1091
sS'unlock_bits'
p1092
S'0x3F'
p1093
ssS'name'
p1094
S'Arduino NG or older w/ ATmega8'
p1095
sS'upload'
p1096
(dp1097
S'speed'
p1098
S'19200'
p1099
sS'maximum_size'
p1100
S'7168'
p1101
sS'protocol'
p1102
S'arduino'
p1103
ssaa(lp1104
S'robotControl'
p1105
a(dp1106
S'build'
p1107
(dp1108
S'core'
p1109
S'robot'
p1110
sS'f_cpu'
p1111
S'16000000L'
p1112
sS'vid'
p1113
S'0x2341'
p1114
sS'pid'
p1115
S'0x8038'
p1116
sS'variant'
p1117
S'robot_control'
p1118
sS'mcu'
p1119
S'atmega32u4'
p1120
ssS'bootloader'
p1121
(dp1122
S'extended_fuses'
p1123
S'0xcb'
p1124
sS'high_fuses'
p1125
S'0xd8'
p1126
sS'low_fuses'
p1127
S'0xff'
p1128
sS'lock_bits'
p1129
S'0x2F'
p1130
sS'file'
p1131
S'Caterina-Robot-Control.hex'
p1132
sS'path'
p1133
S'caterina-Arduino_Robot'
p1134
sS'unlock_bits'
p1135
S'0x3F'
p1136
ssS'name'
p1137
S'Arduino Robot Control'
p1138
sS'upload'
p1139
(dp1140
S'speed'
p1141
S'57600'
p1142
sS'maximum_size'
p1143
S'28672'
p1144
sS'protocol'
p1145
S'avr109'
p1146
sS'disable_flushing'
p1147
S'true'
p1148
ssaa(lp1149
S'robotMotor'
p1150
a(dp1151
S'build'
p1152
(dp1153
S'core'
p1154
S'robot'
p1155
sS'f_cpu'
p1156
S'16000000L'
p1157
sS'vid'
p1158
S'0x2341'
p1159
sS'pid'
p1160
S'0x8039'
p1161
sS'variant'
p1162
S'robot_motor'
p1163
sS'mcu'
p1164
S'atmega32u4'
p1165
ssS'bootloader'
p1166
(dp1167
S'extended_fuses'
p1168
S'0xcb'
p1169
sS'high_fuses'
p1170
S'0xd8'
p1171
sS'low_fuses'
p1172
S'0xff'
p1173
sS'lock_bits'
p1174
S'0x2F'
p1175
sS'file'
p1176
S'Caterina-Robot-Motor.hex'
p1177
sS'path'
p1178
S'caterina-Arduino_Robot'
p1179
sS'unlock_bits'
p1180
S'0x3F'
p1181
ssS'name'
p1182
S'Arduino Robot Motor'
p1183
sS'upload'
p1184
(dp1185
S'speed'
p1186
S'57600'
p1187
sS'maximum_size'
p1188
S'28672'
p1189
sS'protocol'
p1190
S'avr109'
p1191
sS'disable_flushing'
p1192
S'true'
p1193
ssaatp1194
Rp1195
(dp1196
S'default'
p1197
S'uno'
p1198
sbtp1199
a(S'cxx'
p1200
S'/usr/share/arduino/hardware/tools/avr/bin/avr-g++'
p1201
tp1202
a.